(dp1
I0
I0
sI1
I0
sI2
I0
sI3
I0
sI4
I0
sI5
I0
sI6
I0
sI7
I0
sI8
I0
sI9
I0
sI10
I0
sI11
I0
sI12
I0
sI13
I0
sI14
I0
sI15
I0
sI16
I0
sI17
I0
sI18
I0
sI19
I0
sI20
I0
sI21
I0
sI22
I0
sI23
I0
sI24
I0
sI25
I0
sI26
I0
sI27
I0
sI28
I0
sI29
I0
sI30
I0
sI31
I0
sI32
I0
sI33
I0
sI34
I0
sI35
I0
sI36
I0
sI37
I0
sI38
I0
sI39
I0
sI40
I0
sI41
I0
sI42
I0
sI43
I0
sI44
I0
sI45
I0
sI46
I0
sI47
I0
sI48
I0
sI49
I0
sI50
I0
sI51
I0
sI52
I0
sI53
I0
sI54
I0
sI55
I0
sI56
I0
sI57
I0
sI58
I0
sI59
I0
sI60
I0
sI61
I0
sI62
I0
sI63
I0
sI64
I0
sI65
I0
sI66
I0
sI67
I0
sI68
I0
sI69
I0
sI70
I0
sI71
I0
sI72
I0
sI73
I0
sI74
I0
sI75
I0
sI76
I0
sI77
I0
sI78
I0
sI79
I0
sI80
I0
sI81
I0
sI82
I0
sI83
I0
sI84
I0
sI85
I0
sI86
I0
sI87
I0
sI88
I0
sI89
I0
sI90
I0
sI91
I0
sI92
I0
sI93
I0
sI94
I0
sI95
I0
sI96
I0
sI97
I0
sI98
I0
sI99
I0
sI100
I0
sI101
I0
sI102
I0
sI103
I0
sI104
I0
sI105
I0
sI106
I0
sI107
I0
sI108
I0
sI109
I0
sI110
I0
sI111
I0
sI112
I0
sI113
I0
sI114
I0
sI115
I0
sI116
I0
sI117
I0
sI118
I0
sI119
I0
sI120
I0
sI121
I0
sI122
I0
sI123
I0
sI124
I0
sI125
I0
sI126
I0
sI127
I0
sI128
I0
sI129
I0
sI130
I0
sI131
I0
sI132
I0
sI133
I0
sI134
I0
sI135
I0
sI136
I0
sI137
I0
sI138
I0
sI139
I0
sI140
I0
sI141
I0
sI142
I0
sI143
I0
sI144
I0
sI145
I0
sI146
I0
sI147
I0
sI148
I0
sI149
I0
sI150
I0
sI151
I0
sI152
I0
sI153
I0
sI154
I0
sI155
I0
sI156
I0
sI157
I0
sI158
I0
sI159
I0
sI160
I0
sI161
I0
sI162
I0
sI163
I0
sI164
I0
sI165
I0
sI166
I0
sI167
I0
sI168
I0
sI169
I0
sI170
I0
sI171
I0
sI172
I0
sI173
I0
sI174
I0
sI175
I0
sI176
I0
sI177
I0
sI178
I0
sI179
I0
sI180
I0
sI181
I0
sI182
I0
sI183
I0
sI184
I0
sI185
I0
sI186
I0
sI187
I0
sI188
I0
sI189
I0
sI190
I0
sI191
I0
sI192
I0
sI193
I0
sI194
I0
sI195
I0
sI196
I0
sI197
I0
sI198
I0
sI199
I0
sI200
I0
sI201
I0
sI202
I0
sI203
I0
sI204
I0
sI205
I0
sI206
I0
sI207
I0
sI208
I0
sI209
I0
sI210
I0
sI211
I0
sI212
I0
sI213
I0
sI214
I0
sI215
I0
sI216
I0
sI217
I0
sI218
I0
sI219
I0
sI220
I0
sI221
I0
sI222
I0
sI223
I0
sI224
I0
sI225
I0
sI226
I0
sI227
I0
sI228
I0
sI229
I0
sI230
I0
sI231
I0
sI232
I0
sI233
I0
sI234
I0
sI235
I0
sI236
I0
sI237
I0
sI238
I0
sI239
I0
sI240
I0
sI241
I0
sI242
I0
sI243
I0
sI244
I0
sI245
I0
sI246
I0
sI247
I0
sI248
I0
sI249
I0
sI250
I0
sI251
I0
sI252
I0
sI253
I0
sI254
I0
sI255
I0
sI256
I0
sI257
I0
sI258
I0
sI259
I0
sI260
I0
sI261
I0
sI262
I0
sI263
I0
sI264
I0
sI265
I0
sI266
I0
sI267
I0
sI268
I0
sI269
I0
sI270
I0
sI271
I0
sI272
I0
sI273
I0
sI274
I0
sI275
I0
sI276
I0
sI277
I0
sI278
I0
sI279
I0
sI280
I0
sI281
I0
sI282
I0
sI283
I0
sI284
I0
sI285
I0
sI286
I0
sI287
I0
sI288
I0
sI289
I0
sI290
I0
sI291
I0
sI292
I0
sI293
I0
sI294
I0
sI295
I0
sI296
I0
sI297
I0
sI298
I0
sI299
I0
sI300
I0
sI301
I0
sI302
I0
sI303
I0
sI304
I0
sI305
I0
sI306
I0
sI307
I0
sI308
I0
sI309
I0
sI310
I0
sI311
I0
sI312
I0
sI313
I0
sI314
I0
sI315
I0
sI316
I0
sI317
I0
sI318
I0
sI319
I0
sI320
I0
sI321
I0
sI322
I0
sI323
I0
sI324
I0
sI325
I0
sI326
I0
sI327
I0
sI328
I0
sI329
I0
sI330
I0
sI331
I0
sI332
I0
sI333
I0
sI334
I0
sI335
I0
sI336
I0
sI337
I0
sI338
I0
sI339
I0
sI340
I0
sI341
I0
sI342
I0
sI343
I0
sI344
I0
sI345
I0
sI346
I0
sI347
I0
sI348
I0
sI349
I0
sI350
I0
sI351
I0
sI352
I0
sI353
I0
sI354
I0
sI355
I0
sI356
I0
sI357
I0
sI358
I0
sI359
I0
sI360
I0
sI361
I0
sI362
I0
sI363
I0
sI364
I0
sI365
I0
sI366
I0
sI367
I0
sI368
I0
sI369
I0
sI370
I0
sI371
I0
sI372
I0
sI373
I0
sI374
I0
sI375
I0
sI376
I0
sI377
I0
sI378
I0
sI379
I0
sI380
I0
sI381
I0
sI382
I0
sI383
I0
sI384
I0
sI385
I0
sI386
I0
sI387
I0
sI388
I0
sI389
I0
sI390
I0
sI391
I0
sI392
I0
sI393
I0
sI394
I0
sI395
I0
sI396
I0
sI397
I0
sI398
I0
sI399
I0
sI400
I0
sI401
I0
sI402
I0
sI403
I0
sI404
I0
sI405
I0
sI406
I0
sI407
I0
sI408
I0
sI409
I0
sI410
I0
sI411
I0
sI412
I0
sI413
I0
sI414
I0
sI415
I0
sI416
I0
sI417
I0
sI418
I0
sI419
I0
sI420
I0
sI421
I0
sI422
I0
sI423
I0
sI424
I0
sI425
I0
sI426
I0
sI427
I0
sI428
I0
sI429
I0
sI430
I0
sI431
I0
sI432
I0
sI433
I0
sI434
I0
sI435
I0
sI436
I0
sI437
I0
sI438
I0
sI439
I0
sI440
I0
sI441
I0
sI442
I0
sI443
I0
sI444
I0
sI445
I0
sI446
I0
sI447
I0
sI448
I0
sI449
I0
sI450
I0
sI451
I0
sI452
I0
sI453
I0
sI454
I0
sI455
I0
sI456
I0
sI457
I0
sI458
I0
sI459
I0
sI460
I0
sI461
I0
sI462
I0
sI463
I0
sI464
I0
sI465
I0
sI466
I0
sI467
I0
sI468
I0
sI469
I0
sI470
I0
sI471
I0
sI472
I0
sI473
I0
sI474
I0
sI475
I0
sI476
I0
sI477
I0
sI478
I0
sI479
I0
sI480
I0
sI481
I0
sI482
I0
sI483
I0
sI484
I0
sI485
I0
sI486
I0
sI487
I0
sI488
I0
sI489
I0
sI490
I0
sI491
I0
sI492
I0
sI493
I0
sI494
I0
sI495
I0
sI496
I0
sI497
I0
sI498
I0
sI499
I0
sI500
I0
sI501
I0
sI502
I0
sI503
I0
sI504
I0
sI505
I0
sI506
I0
sI507
I0
sI508
I0
sI509
I0
sI510
I0
sI511
I0
sI512
I0
sI513
I0
sI514
I0
sI515
I0
sI516
I0
sI517
I0
sI518
I0
sI519
I0
sI520
I0
sI521
I0
sI522
I0
sI523
I0
sI524
I0
sI525
I0
sI526
I0
sI527
I0
sI528
I0
sI529
I0
sI530
I0
sI531
I0
sI532
I0
sI533
I0
sI534
I0
sI535
I0
sI536
I0
sI537
I0
sI538
I0
sI539
I0
sI540
I0
sI541
I0
sI542
I0
sI543
I0
sI544
I0
sI545
I0
sI546
I0
sI547
I0
sI548
I0
sI549
I0
sI550
I0
sI551
I0
sI552
I0
sI553
I0
sI554
I0
sI555
I0
sI556
I0
sI557
I0
sI558
I0
sI559
I0
sI560
I0
sI561
I0
sI562
I0
sI563
I0
sI564
I0
sI565
I0
sI566
I0
sI567
I0
sI568
I0
sI569
I0
sI570
I0
sI571
I0
sI572
I0
sI573
I0
sI574
I0
sI575
I0
sI576
I0
sI577
I0
sI578
I0
sI579
I0
sI580
I0
sI581
I0
sI582
I0
sI583
I0
sI584
I0
sI585
I0
sI586
I0
sI587
I0
sI588
I0
sI589
I0
sI590
I0
sI591
I0
sI592
I0
sI593
I0
sI594
I0
sI595
I0
sI596
I0
sI597
I0
sI598
I0
sI599
I0
sI600
I0
sI601
I0
sI602
I0
sI603
I0
sI604
I0
sI605
I0
sI606
I0
sI607
I0
sI608
I0
sI609
I0
sI610
I0
sI611
I0
sI612
I0
sI613
I0
sI614
I0
sI615
I0
sI616
I0
sI617
I0
sI618
I0
sI619
I0
sI620
I0
sI621
I0
sI622
I0
sI623
I0
sI624
I0
sI625
I0
sI626
I0
sI627
I0
sI628
I0
sI629
I0
sI630
I0
sI631
I0
sI632
I0
sI633
I0
sI634
I0
sI635
I0
sI636
I0
sI637
I0
sI638
I0
sI639
I0
sI640
I0
sI641
I0
sI642
I0
sI643
I0
sI644
I0
sI645
I0
sI646
I0
sI647
I0
sI648
I0
sI649
I0
sI650
I0
sI651
I0
sI652
I0
sI653
I0
sI654
I0
sI655
I0
sI656
I0
sI657
I0
sI658
I0
sI659
I0
sI660
I0
sI661
I0
sI662
I0
sI663
I0
sI664
I0
sI665
I0
sI666
I0
sI667
I0
sI668
I0
sI669
I0
sI670
I0
sI671
I0
sI672
I0
sI673
I0
sI674
I0
sI675
I0
sI676
I0
sI677
I0
sI678
I0
sI679
I0
sI680
I0
sI681
I0
sI682
I0
sI683
I0
sI684
I0
sI685
I0
sI686
I0
sI687
I0
sI688
I0
sI689
I0
sI690
I0
sI691
I0
sI692
I0
sI693
I0
sI694
I0
sI695
I0
sI696
I0
sI697
I0
sI698
I0
sI699
I0
sI700
I0
sI701
I0
sI702
I0
sI703
I0
sI704
I0
sI705
I0
sI706
I0
sI707
I0
sI708
I0
sI709
I0
sI710
I0
sI711
I0
sI712
I0
sI713
I0
sI714
I0
sI715
I0
sI716
I0
sI717
I0
sI718
I0
sI719
I0
sI720
I0
sI721
I0
sI722
I0
sI723
I0
sI724
I0
sI725
I0
sI726
I0
sI727
I0
sI728
I0
sI729
I0
sI730
I0
sI731
I0
sI732
I0
sI733
I0
sI734
I0
sI735
I0
sI736
I0
sI737
I0
sI738
I0
sI739
I0
sI740
I0
sI741
I0
sI742
I0
sI743
I0
sI744
I0
sI745
I0
sI746
I0
sI747
I0
sI748
I0
sI749
I0
sI750
I0
sI751
I0
sI752
I0
sI753
I0
sI754
I0
sI755
I0
sI756
I0
sI757
I0
sI758
I0
sI759
I0
sI760
I0
sI761
I0
sI762
I0
sI763
I0
sI764
I0
sI765
I0
sI766
I0
sI767
I0
sI768
I0
sI769
I0
sI770
I0
sI771
I0
sI772
I0
sI773
I0
sI774
I0
sI775
I0
sI776
I0
sI777
I0
sI778
I0
sI779
I0
sI780
I0
sI781
I0
sI782
I0
sI783
I0
sI784
I0
sI785
I0
sI786
I0
sI787
I0
sI788
I0
sI789
I0
sI790
I0
sI791
I0
sI792
I0
sI793
I0
sI794
I0
sI795
I0
sI796
I0
sI797
I0
sI798
I0
sI799
I0
sI800
I0
sI801
I0
sI802
I0
sI803
I0
sI804
I0
sI805
I0
sI806
I0
sI807
I0
sI808
I0
sI809
I0
sI810
I0
sI811
I0
sI812
I0
sI813
I0
sI814
I0
sI815
I0
sI816
I0
sI817
I0
sI818
I0
sI819
I0
sI820
I0
sI821
I0
sI822
I0
sI823
I0
sI824
I0
sI825
I0
sI826
I0
sI827
I0
sI828
I0
sI829
I0
sI830
I0
sI831
I0
sI832
I0
sI833
I0
sI834
I0
sI835
I0
sI836
I0
sI837
I0
sI838
I0
sI839
I0
sI840
I0
sI841
I0
sI842
I0
sI843
I0
sI844
I0
sI845
I0
sI846
I0
sI847
I0
sI848
I0
sI849
I0
sI850
I0
sI851
I0
sI852
I0
sI853
I0
sI854
I0
sI855
I0
sI856
I0
sI857
I0
sI858
I0
sI859
I0
sI860
I0
sI861
I0
sI862
I0
sI863
I0
sI864
I0
sI865
I0
sI866
I0
sI867
I0
sI868
I0
sI869
I0
sI870
I0
sI871
I0
sI872
I0
sI873
I0
sI874
I0
sI875
I0
sI876
I0
sI877
I0
sI878
I0
sI879
I0
sI880
I0
sI881
I0
sI882
I0
sI883
I0
sI884
I0
sI885
I0
sI886
I0
sI887
I0
sI888
I0
sI889
I0
sI890
I0
sI891
I0
sI892
I0
sI893
I0
sI894
I0
sI895
I0
sI896
I0
sI897
I0
sI898
I0
sI899
I0
sI900
I0
sI901
I0
sI902
I0
sI903
I0
sI904
I0
sI905
I0
sI906
I0
sI907
I0
sI908
I0
sI909
I0
sI910
I0
sI911
I0
sI912
I0
sI913
I0
sI914
I0
sI915
I0
sI916
I0
sI917
I0
sI918
I0
sI919
I0
sI920
I0
sI921
I0
sI922
I0
sI923
I0
sI924
I0
sI925
I0
sI926
I0
sI927
I0
sI928
I0
sI929
I0
sI930
I0
sI931
I0
sI932
I0
sI933
I0
sI934
I0
sI935
I0
sI936
I0
sI937
I0
sI938
I0
sI939
I0
sI940
I0
sI941
I0
sI942
I0
sI943
I0
sI944
I0
sI945
I0
sI946
I0
sI947
I0
sI948
I0
sI949
I0
sI950
I0
sI951
I0
sI952
I0
sI953
I0
sI954
I0
sI955
I0
sI956
I0
sI957
I0
sI958
I0
sI959
I0
sI960
I0
sI961
I0
sI962
I0
sI963
I0
sI964
I0
sI965
I0
sI966
I0
sI967
I0
sI968
I0
sI969
I0
sI970
I0
sI971
I0
sI972
I0
sI973
I0
sI974
I0
sI975
I0
sI976
I0
sI977
I0
sI978
I0
sI979
I0
sI980
I0
sI981
I0
sI982
I0
sI983
I0
sI984
I0
sI985
I0
sI986
I0
sI987
I0
sI988
I0
sI989
I0
sI990
I0
sI991
I0
sI992
I0
sI993
I0
sI994
I0
sI995
I0
sI996
I0
sI997
I0
sI998
I0
sI999
I0
sI1000
I0
sI1001
I0
sI1002
I0
sI1003
I0
sI1004
I0
sI1005
I0
sI1006
I0
sI1007
I0
sI1008
I0
sI1009
I0
sI1010
I0
sI1011
I0
sI1012
I0
sI1013
I0
sI1014
I0
sI1015
I0
sI1016
I0
sI1017
I0
sI1018
I0
sI1019
I0
sI1020
I0
sI1021
I0
sI1022
I0
sI1023
I0
sI1024
I0
sI1025
I0
sI1026
I0
sI1027
I0
sI1028
I0
sI1029
I0
sI1030
I0
sI1031
I0
sI1032
I0
sI1033
I0
sI1034
I0
sI1035
I0
sI1036
I0
sI1037
I0
sI1038
I0
sI1039
I0
sI1040
I0
sI1041
I0
sI1042
I0
sI1043
I0
sI1044
I0
sI1045
I0
sI1046
I0
sI1047
I0
sI1048
I0
sI1049
I0
sI1050
I0
sI1051
I0
sI1052
I0
sI1053
I0
sI1054
I0
sI1055
I0
sI1056
I0
sI1057
I0
sI1058
I0
sI1059
I0
sI1060
I0
sI1061
I0
sI1062
I0
sI1063
I0
sI1064
I0
sI1065
I0
sI1066
I0
sI1067
I0
sI1068
I0
sI1069
I0
sI1070
I0
sI1071
I0
sI1072
I0
sI1073
I0
sI1074
I0
sI1075
I0
sI1076
I0
sI1077
I0
sI1078
I0
sI1079
I0
sI1080
I0
sI1081
I0
sI1082
I0
sI1083
I0
sI1084
I0
sI1085
I0
sI1086
I0
sI1087
I0
sI1088
I0
sI1089
I0
sI1090
I0
sI1091
I0
sI1092
I0
sI1093
I0
sI1094
I0
sI1095
I0
sI1096
I0
sI1097
I0
sI1098
I0
sI1099
I0
sI1100
I0
sI1101
I0
sI1102
I0
sI1103
I0
sI1104
I0
sI1105
I0
sI1106
I0
sI1107
I0
sI1108
I0
sI1109
I0
sI1110
I0
sI1111
I0
sI1112
I0
sI1113
I0
sI1114
I0
sI1115
I0
sI1116
I0
sI1117
I0
sI1118
I0
sI1119
I0
sI1120
I0
sI1121
I0
sI1122
I0
sI1123
I0
sI1124
I0
sI1125
I0
sI1126
I0
sI1127
I0
sI1128
I0
sI1129
I0
sI1130
I0
sI1131
I0
sI1132
I0
sI1133
I0
sI1134
I0
sI1135
I0
sI1136
I0
sI1137
I0
sI1138
I0
sI1139
I0
sI1140
I0
sI1141
I0
sI1142
I0
sI1143
I0
sI1144
I0
sI1145
I0
sI1146
I0
sI1147
I0
sI1148
I0
sI1149
I0
sI1150
I0
sI1151
I0
sI1152
I0
sI1153
I0
sI1154
I0
sI1155
I0
sI1156
I0
sI1157
I0
sI1158
I0
sI1159
I0
sI1160
I0
sI1161
I0
sI1162
I0
sI1163
I0
sI1164
I0
sI1165
I0
sI1166
I0
sI1167
I0
sI1168
I0
sI1169
I0
sI1170
I0
sI1171
I0
sI1172
I0
sI1173
I0
sI1174
I0
sI1175
I0
sI1176
I0
sI1177
I0
sI1178
I0
sI1179
I0
sI1180
I0
sI1181
I0
sI1182
I0
sI1183
I0
sI1184
I0
sI1185
I0
sI1186
I0
sI1187
I0
sI1188
I0
sI1189
I0
sI1190
I0
sI1191
I0
sI1192
I0
sI1193
I0
sI1194
I0
sI1195
I0
sI1196
I0
sI1197
I0
sI1198
I0
sI1199
I0
sI1200
I0
sI1201
I0
sI1202
I0
sI1203
I0
sI1204
I0
sI1205
I0
sI1206
I0
sI1207
I0
sI1208
I0
sI1209
I0
sI1210
I0
sI1211
I0
sI1212
I0
sI1213
I0
sI1214
I0
sI1215
I0
sI1216
I0
sI1217
I0
sI1218
I0
sI1219
I0
sI1220
I0
sI1221
I0
sI1222
I0
sI1223
I0
sI1224
I0
sI1225
I0
sI1226
I0
sI1227
I0
sI1228
I0
sI1229
I0
sI1230
I0
sI1231
I0
sI1232
I0
sI1233
I0
sI1234
I0
sI1235
I0
sI1236
I0
sI1237
I0
sI1238
I0
sI1239
I0
sI1240
I0
sI1241
I0
sI1242
I0
sI1243
I0
sI1244
I0
sI1245
I0
sI1246
I0
sI1247
I0
sI1248
I0
sI1249
I0
sI1250
I0
sI1251
I0
sI1252
I0
sI1253
I0
sI1254
I0
sI1255
I0
sI1256
I0
sI1257
I0
sI1258
I0
sI1259
I0
sI1260
I0
sI1261
I0
sI1262
I0
sI1263
I0
sI1264
I0
sI1265
I0
sI1266
I0
sI1267
I0
sI1268
I0
sI1269
I0
sI1270
I0
sI1271
I0
sI1272
I0
sI1273
I0
sI1274
I0
sI1275
I0
sI1276
I0
sI1277
I0
sI1278
I0
sI1279
I0
sI1280
I0
sI1281
I0
sI1282
I0
sI1283
I0
sI1284
I0
sI1285
I0
sI1286
I0
sI1287
I0
sI1288
I0
sI1289
I0
sI1290
I0
sI1291
I0
sI1292
I0
sI1293
I0
sI1294
I0
sI1295
I0
sI1296
I0
sI1297
I0
sI1298
I0
sI1299
I0
sI1300
I0
sI1301
I0
sI1302
I0
sI1303
I0
sI1304
I0
sI1305
I0
sI1306
I0
sI1307
I0
sI1308
I0
sI1309
I0
sI1310
I0
sI1311
I0
sI1312
I0
sI1313
I0
sI1314
I0
sI1315
I0
sI1316
I0
sI1317
I0
sI1318
I0
sI1319
I0
sI1320
I0
sI1321
I0
sI1322
I0
sI1323
I0
sI1324
I0
sI1325
I0
sI1326
I0
sI1327
I0
sI1328
I0
sI1329
I0
sI1330
I0
sI1331
I0
sI1332
I0
sI1333
I0
sI1334
I0
sI1335
I0
sI1336
I0
sI1337
I0
sI1338
I0
sI1339
I0
sI1340
I0
sI1341
I0
sI1342
I0
sI1343
I0
sI1344
I0
sI1345
I0
sI1346
I0
sI1347
I0
sI1348
I0
sI1349
I0
sI1350
I0
sI1351
I0
sI1352
I0
sI1353
I0
sI1354
I0
sI1355
I0
sI1356
I0
sI1357
I0
sI1358
I0
sI1359
I0
sI1360
I0
sI1361
I0
sI1362
I0
sI1363
I0
sI1364
I0
sI1365
I0
sI1366
I0
sI1367
I0
sI1368
I0
sI1369
I0
sI1370
I0
sI1371
I0
sI1372
I0
sI1373
I0
sI1374
I0
sI1375
I0
sI1376
I0
sI1377
I0
sI1378
I0
sI1379
I0
sI1380
I0
sI1381
I0
sI1382
I0
sI1383
I0
sI1384
I0
sI1385
I0
sI1386
I0
sI1387
I0
sI1388
I0
sI1389
I0
sI1390
I0
sI1391
I0
sI1392
I0
sI1393
I0
sI1394
I0
sI1395
I0
sI1396
I0
sI1397
I0
sI1398
I0
sI1399
I0
sI1400
I0
sI1401
I0
sI1402
I0
sI1403
I0
sI1404
I0
sI1405
I0
sI1406
I0
sI1407
I0
sI1408
I0
sI1409
I0
sI1410
I0
sI1411
I0
sI1412
I0
sI1413
I0
sI1414
I0
sI1415
I0
sI1416
I0
sI1417
I0
sI1418
I0
sI1419
I0
sI1420
I0
sI1421
I0
sI1422
I0
sI1423
I0
sI1424
I0
sI1425
I0
sI1426
I0
sI1427
I0
sI1428
I0
sI1429
I0
sI1430
I0
sI1431
I0
sI1432
I0
sI1433
I0
sI1434
I0
sI1435
I0
sI1436
I0
sI1437
I0
sI1438
I0
sI1439
I0
sI1440
I0
sI1441
I0
sI1442
I0
sI1443
I0
sI1444
I0
sI1445
I0
sI1446
I0
sI1447
I0
sI1448
I0
sI1449
I0
sI1450
I0
sI1451
I0
sI1452
I0
sI1453
I0
sI1454
I0
sI1455
I0
sI1456
I0
sI1457
I0
sI1458
I0
sI1459
I0
sI1460
I0
sI1461
I0
sI1462
I0
sI1463
I0
sI1464
I0
sI1465
I0
sI1466
I0
sI1467
I0
sI1468
I0
sI1469
I0
sI1470
I0
sI1471
I0
sI1472
I0
sI1473
I0
sI1474
I0
sI1475
I0
sI1476
I0
sI1477
I0
sI1478
I0
sI1479
I0
sI1480
I0
sI1481
I0
sI1482
I0
sI1483
I0
sI1484
I0
sI1485
I0
sI1486
I0
sI1487
I0
sI1488
I0
sI1489
I0
sI1490
I0
sI1491
I0
sI1492
I0
sI1493
I0
sI1494
I0
sI1495
I0
sI1496
I0
sI1497
I0
sI1498
I0
sI1499
I0
sI1500
I0
sI1501
I0
sI1502
I0
sI1503
I0
sI1504
I0
sI1505
I0
sI1506
I0
sI1507
I0
sI1508
I0
sI1509
I0
sI1510
I0
sI1511
I0
sI1512
I0
sI1513
I0
sI1514
I0
sI1515
I0
sI1516
I0
sI1517
I0
sI1518
I0
sI1519
I0
sI1520
I0
sI1521
I0
sI1522
I0
sI1523
I0
sI1524
I0
sI1525
I0
sI1526
I0
sI1527
I0
sI1528
I0
sI1529
I0
sI1530
I0
sI1531
I0
sI1532
I0
sI1533
I0
sI1534
I0
sI1535
I0
sI1536
I0
sI1537
I0
sI1538
I0
sI1539
I0
sI1540
I0
sI1541
I0
sI1542
I0
sI1543
I0
sI1544
I0
sI1545
I0
sI1546
I0
sI1547
I0
sI1548
I0
sI1549
I0
sI1550
I0
sI1551
I0
sI1552
I0
sI1553
I0
sI1554
I0
sI1555
I0
sI1556
I0
sI1557
I0
sI1558
I0
sI1559
I0
sI1560
I0
sI1561
I0
sI1562
I0
sI1563
I0
sI1564
I0
sI1565
I0
sI1566
I0
sI1567
I0
sI1568
I0
sI1569
I0
sI1570
I0
sI1571
I0
sI1572
I0
sI1573
I0
sI1574
I0
sI1575
I0
sI1576
I0
sI1577
I0
sI1578
I0
sI1579
I0
sI1580
I0
sI1581
I0
sI1582
I0
sI1583
I0
sI1584
I0
sI1585
I0
sI1586
I0
sI1587
I0
sI1588
I0
sI1589
I0
sI1590
I0
sI1591
I0
sI1592
I0
sI1593
I0
sI1594
I0
sI1595
I0
sI1596
I0
sI1597
I0
sI1598
I0
sI1599
I0
sI1600
I0
sI1601
I0
sI1602
I0
sI1603
I0
sI1604
I0
sI1605
I0
sI1606
I0
sI1607
I0
sI1608
I0
sI1609
I0
sI1610
I0
sI1611
I0
sI1612
I0
sI1613
I0
sI1614
I0
sI1615
I0
sI1616
I0
sI1617
I0
sI1618
I0
sI1619
I0
sI1620
I0
sI1621
I0
sI1622
I0
sI1623
I0
sI1624
I0
sI1625
I0
sI1626
I0
sI1627
I0
sI1628
I0
sI1629
I0
sI1630
I0
sI1631
I0
sI1632
I0
sI1633
I0
sI1634
I0
sI1635
I0
sI1636
I0
sI1637
I0
sI1638
I0
sI1639
I0
sI1640
I0
sI1641
I0
sI1642
I0
sI1643
I0
sI1644
I0
sI1645
I0
sI1646
I0
sI1647
I0
sI1648
I0
sI1649
I0
sI1650
I0
sI1651
I0
sI1652
I0
sI1653
I0
sI1654
I0
sI1655
I0
sI1656
I0
sI1657
I0
sI1658
I0
sI1659
I0
sI1660
I0
sI1661
I0
sI1662
I0
sI1663
I0
sI1664
I0
sI1665
I0
sI1666
I0
sI1667
I0
sI1668
I0
sI1669
I0
sI1670
I0
sI1671
I0
sI1672
I0
sI1673
I0
sI1674
I0
sI1675
I0
sI1676
I0
sI1677
I0
sI1678
I0
sI1679
I0
sI1680
I0
sI1681
I0
sI1682
I0
sI1683
I0
sI1684
I0
sI1685
I0
sI1686
I0
sI1687
I0
sI1688
I0
sI1689
I0
sI1690
I0
sI1691
I0
sI1692
I0
sI1693
I0
sI1694
I0
sI1695
I0
sI1696
I0
sI1697
I0
sI1698
I0
sI1699
I0
sI1700
I0
sI1701
I0
sI1702
I0
sI1703
I0
sI1704
I0
sI1705
I0
sI1706
I0
sI1707
I0
sI1708
I0
sI1709
I0
sI1710
I0
sI1711
I0
sI1712
I0
sI1713
I0
sI1714
I0
sI1715
I0
sI1716
I0
sI1717
I0
sI1718
I0
sI1719
I0
sI1720
I0
sI1721
I0
sI1722
I0
sI1723
I0
sI1724
I0
sI1725
I0
sI1726
I0
sI1727
I0
sI1728
I0
sI1729
I0
sI1730
I0
sI1731
I0
sI1732
I0
sI1733
I0
sI1734
I0
sI1735
I0
sI1736
I0
sI1737
I0
sI1738
I0
sI1739
I0
sI1740
I0
sI1741
I0
sI1742
I0
sI1743
I0
sI1744
I0
sI1745
I0
sI1746
I0
sI1747
I0
sI1748
I0
sI1749
I0
sI1750
I0
sI1751
I0
sI1752
I0
sI1753
I0
sI1754
I0
sI1755
I0
sI1756
I0
sI1757
I0
sI1758
I0
sI1759
I0
sI1760
I0
sI1761
I0
sI1762
I0
sI1763
I0
sI1764
I0
sI1765
I0
sI1766
I0
sI1767
I0
sI1768
I0
sI1769
I0
sI1770
I0
sI1771
I0
sI1772
I0
sI1773
I0
sI1774
I0
sI1775
I0
sI1776
I0
sI1777
I0
sI1778
I0
sI1779
I0
sI1780
I0
sI1781
I0
sI1782
I0
sI1783
I0
sI1784
I0
sI1785
I0
sI1786
I0
sI1787
I0
sI1788
I0
sI1789
I0
sI1790
I0
sI1791
I0
sI1792
I0
sI1793
I0
sI1794
I0
sI1795
I0
sI1796
I0
sI1797
I0
sI1798
I0
sI1799
I0
sI1800
I0
sI1801
I0
sI1802
I0
sI1803
I0
sI1804
I0
sI1805
I0
sI1806
I0
sI1807
I0
sI1808
I0
sI1809
I0
sI1810
I0
sI1811
I0
sI1812
I0
sI1813
I0
sI1814
I0
sI1815
I0
sI1816
I0
sI1817
I0
sI1818
I0
sI1819
I0
sI1820
I0
sI1821
I0
sI1822
I0
sI1823
I0
sI1824
I0
sI1825
I0
sI1826
I0
sI1827
I0
sI1828
I0
sI1829
I0
sI1830
I0
sI1831
I0
sI1832
I0
sI1833
I0
sI1834
I0
sI1835
I0
sI1836
I0
sI1837
I0
sI1838
I0
sI1839
I0
sI1840
I0
sI1841
I0
sI1842
I0
sI1843
I0
sI1844
I0
sI1845
I0
sI1846
I0
sI1847
I0
sI1848
I0
sI1849
I0
sI1850
I0
sI1851
I0
sI1852
I0
sI1853
I0
sI1854
I0
sI1855
I0
sI1856
I0
sI1857
I0
sI1858
I0
sI1859
I0
sI1860
I0
sI1861
I0
sI1862
I0
sI1863
I0
sI1864
I0
sI1865
I0
sI1866
I0
sI1867
I0
sI1868
I0
sI1869
I0
sI1870
I0
sI1871
I0
sI1872
I0
sI1873
I0
sI1874
I0
sI1875
I0
sI1876
I0
sI1877
I0
sI1878
I0
sI1879
I0
sI1880
I0
sI1881
I0
sI1882
I0
sI1883
I0
sI1884
I0
sI1885
I0
sI1886
I0
sI1887
I0
sI1888
I0
sI1889
I0
sI1890
I0
sI1891
I0
sI1892
I0
sI1893
I0
sI1894
I0
sI1895
I0
sI1896
I0
sI1897
I0
sI1898
I0
sI1899
I0
sI1900
I0
sI1901
I0
sI1902
I0
sI1903
I0
sI1904
I0
sI1905
I0
sI1906
I0
sI1907
I0
sI1908
I0
sI1909
I0
sI1910
I0
sI1911
I0
sI1912
I0
sI1913
I0
sI1914
I0
sI1915
I0
sI1916
I0
sI1917
I0
sI1918
I0
sI1919
I0
sI1920
I0
sI1921
I0
sI1922
I0
sI1923
I0
sI1924
I0
sI1925
I0
sI1926
I0
sI1927
I0
sI1928
I0
sI1929
I0
sI1930
I0
sI1931
I0
sI1932
I0
sI1933
I0
sI1934
I0
sI1935
I0
sI1936
I0
sI1937
I0
sI1938
I0
sI1939
I0
sI1940
I0
sI1941
I0
sI1942
I0
sI1943
I0
sI1944
I0
sI1945
I0
sI1946
I0
sI1947
I0
sI1948
I0
sI1949
I0
sI1950
I0
sI1951
I0
sI1952
I0
sI1953
I0
sI1954
I0
sI1955
I0
sI1956
I0
sI1957
I0
sI1958
I0
sI1959
I0
sI1960
I0
sI1961
I0
sI1962
I0
sI1963
I0
sI1964
I0
sI1965
I0
sI1966
I0
sI1967
I0
sI1968
I0
sI1969
I0
sI1970
I0
sI1971
I0
sI1972
I0
sI1973
I0
sI1974
I0
sI1975
I0
sI1976
I0
sI1977
I0
sI1978
I0
sI1979
I0
sI1980
I0
sI1981
I0
sI1982
I0
sI1983
I0
sI1984
I0
sI1985
I0
sI1986
I0
sI1987
I0
sI1988
I0
sI1989
I0
sI1990
I0
sI1991
I0
sI1992
I0
sI1993
I0
sI1994
I0
sI1995
I0
sI1996
I0
sI1997
I0
sI1998
I0
sI1999
I0
sI2000
I0
sI2001
I0
sI2002
I0
sI2003
I0
sI2004
I0
sI2005
I0
sI2006
I0
sI2007
I0
sI2008
I0
sI2009
I0
sI2010
I0
sI2011
I0
sI2012
I0
sI2013
I0
sI2014
I0
sI2015
I0
sI2016
I0
sI2017
I0
sI2018
I0
sI2019
I0
sI2020
I0
sI2021
I0
sI2022
I0
sI2023
I0
sI2024
I0
sI2025
I0
sI2026
I0
sI2027
I0
sI2028
I0
sI2029
I0
sI2030
I0
sI2031
I0
sI2032
I0
sI2033
I0
sI2034
I0
sI2035
I0
sI2036
I0
sI2037
I0
sI2038
I0
sI2039
I0
sI2040
I0
sI2041
I0
sI2042
I0
sI2043
I0
sI2044
I0
sI2045
I0
sI2046
I0
sI2047
I0
sI2048
I0
sI2049
I0
sI2050
I0
sI2051
I0
sI2052
I0
sI2053
I0
sI2054
I0
sI2055
I0
sI2056
I0
sI2057
I0
sI2058
I0
sI2059
I0
sI2060
I0
sI2061
I0
sI2062
I0
sI2063
I0
sI2064
I0
sI2065
I0
sI2066
I0
sI2067
I0
sI2068
I0
sI2069
I0
sI2070
I0
sI2071
I0
sI2072
I0
sI2073
I0
sI2074
I0
sI2075
I0
sI2076
I0
sI2077
I0
sI2078
I0
sI2079
I0
sI2080
I0
sI2081
I0
sI2082
I0
sI2083
I0
sI2084
I0
sI2085
I0
sI2086
I0
sI2087
I0
sI2088
I0
sI2089
I0
sI2090
I0
sI2091
I0
sI2092
I0
sI2093
I0
sI2094
I0
sI2095
I0
sI2096
I0
sI2097
I0
sI2098
I0
sI2099
I0
sI2100
I0
sI2101
I0
sI2102
I0
sI2103
I0
sI2104
I0
sI2105
I0
sI2106
I0
sI2107
I0
sI2108
I0
sI2109
I0
sI2110
I0
sI2111
I0
sI2112
I0
sI2113
I0
sI2114
I0
sI2115
I0
sI2116
I0
sI2117
I0
sI2118
I0
sI2119
I0
sI2120
I0
sI2121
I0
sI2122
I0
sI2123
I0
sI2124
I0
sI2125
I0
sI2126
I0
sI2127
I0
sI2128
I0
sI2129
I0
sI2130
I0
sI2131
I0
sI2132
I0
sI2133
I0
sI2134
I0
sI2135
I0
sI2136
I0
sI2137
I0
sI2138
I0
sI2139
I0
sI2140
I0
sI2141
I0
sI2142
I0
sI2143
I0
sI2144
I0
sI2145
I0
sI2146
I0
sI2147
I0
sI2148
I0
sI2149
I0
sI2150
I0
sI2151
I0
sI2152
I0
sI2153
I0
sI2154
I0
sI2155
I0
sI2156
I0
sI2157
I0
sI2158
I0
sI2159
I0
sI2160
I0
sI2161
I0
sI2162
I0
sI2163
I0
sI2164
I0
sI2165
I0
sI2166
I0
sI2167
I0
sI2168
I0
sI2169
I0
sI2170
I0
sI2171
I0
sI2172
I0
sI2173
I0
sI2174
I0
sI2175
I0
sI2176
I0
sI2177
I0
sI2178
I0
sI2179
I0
sI2180
I0
sI2181
I0
sI2182
I0
sI2183
I0
sI2184
I0
sI2185
I0
sI2186
I0
sI2187
I0
sI2188
I0
sI2189
I0
sI2190
I0
sI2191
I0
sI2192
I0
sI2193
I0
sI2194
I0
sI2195
I0
sI2196
I0
sI2197
I0
sI2198
I0
sI2199
I0
sI2200
I0
sI2201
I0
sI2202
I0
sI2203
I0
sI2204
I0
sI2205
I0
sI2206
I0
sI2207
I0
sI2208
I0
sI2209
I0
sI2210
I0
sI2211
I0
sI2212
I0
sI2213
I0
sI2214
I0
sI2215
I0
sI2216
I0
sI2217
I0
sI2218
I0
sI2219
I0
sI2220
I0
sI2221
I0
sI2222
I0
sI2223
I0
sI2224
I0
sI2225
I0
sI2226
I0
sI2227
I0
sI2228
I0
sI2229
I0
sI2230
I0
sI2231
I0
sI2232
I0
sI2233
I0
sI2234
I0
sI2235
I0
sI2236
I0
sI2237
I0
sI2238
I0
sI2239
I0
sI2240
I0
sI2241
I0
sI2242
I0
sI2243
I0
sI2244
I0
sI2245
I0
sI2246
I0
sI2247
I0
sI2248
I0
sI2249
I0
sI2250
I0
sI2251
I0
sI2252
I0
sI2253
I0
sI2254
I0
sI2255
I0
sI2256
I0
sI2257
I0
sI2258
I0
sI2259
I0
sI2260
I0
sI2261
I0
sI2262
I0
sI2263
I0
sI2264
I0
sI2265
I0
sI2266
I0
sI2267
I0
sI2268
I0
sI2269
I0
sI2270
I0
sI2271
I0
sI2272
I0
sI2273
I0
sI2274
I0
sI2275
I0
sI2276
I0
sI2277
I0
sI2278
I0
sI2279
I0
sI2280
I0
sI2281
I0
sI2282
I0
sI2283
I0
sI2284
I0
sI2285
I0
sI2286
I0
sI2287
I0
sI2288
I0
sI2289
I0
sI2290
I0
sI2291
I0
sI2292
I0
sI2293
I0
sI2294
I0
sI2295
I0
sI2296
I0
sI2297
I0
sI2298
I0
sI2299
I0
sI2300
I0
sI2301
I0
sI2302
I0
sI2303
I0
sI2304
I0
sI2305
I0
sI2306
I0
sI2307
I0
sI2308
I0
sI2309
I0
sI2310
I0
sI2311
I0
sI2312
I0
sI2313
I0
sI2314
I0
sI2315
I0
sI2316
I0
sI2317
I0
sI2318
I0
sI2319
I0
sI2320
I0
sI2321
I0
sI2322
I0
sI2323
I0
sI2324
I0
sI2325
I0
sI2326
I0
sI2327
I0
sI2328
I0
sI2329
I0
sI2330
I0
sI2331
I0
sI2332
I0
sI2333
I0
sI2334
I0
sI2335
I0
sI2336
I0
sI2337
I0
sI2338
I0
sI2339
I0
sI2340
I0
sI2341
I0
sI2342
I0
sI2343
I0
sI2344
I0
sI2345
I0
sI2346
I0
sI2347
I0
sI2348
I0
sI2349
I0
sI2350
I0
sI2351
I0
sI2352
I0
sI2353
I0
sI2354
I0
sI2355
I0
sI2356
I0
sI2357
I0
sI2358
I0
sI2359
I0
sI2360
I0
sI2361
I0
sI2362
I0
sI2363
I0
sI2364
I0
sI2365
I0
sI2366
I0
sI2367
I0
sI2368
I0
sI2369
I0
sI2370
I0
sI2371
I0
sI2372
I0
sI2373
I0
sI2374
I0
sI2375
I0
sI2376
I0
sI2377
I0
sI2378
I0
sI2379
I0
sI2380
I0
sI2381
I0
sI2382
I0
sI2383
I0
sI2384
I0
sI2385
I0
sI2386
I0
sI2387
I0
sI2388
I0
sI2389
I0
sI2390
I0
sI2391
I0
sI2392
I0
sI2393
I0
sI2394
I0
sI2395
I0
sI2396
I0
sI2397
I0
sI2398
I0
sI2399
I0
sI2400
I0
sI2401
I0
sI2402
I0
sI2403
I0
sI2404
I0
sI2405
I0
sI2406
I0
sI2407
I0
sI2408
I0
sI2409
I0
sI2410
I0
sI2411
I0
sI2412
I0
sI2413
I0
sI2414
I0
sI2415
I0
sI2416
I0
sI2417
I0
sI2418
I0
sI2419
I0
sI2420
I0
sI2421
I0
sI2422
I0
sI2423
I0
sI2424
I0
sI2425
I0
sI2426
I0
sI2427
I0
sI2428
I0
sI2429
I0
sI2430
I0
sI2431
I0
sI2432
I0
sI2433
I0
sI2434
I0
sI2435
I0
sI2436
I0
sI2437
I0
sI2438
I0
sI2439
I0
sI2440
I0
sI2441
I0
sI2442
I0
sI2443
I0
sI2444
I0
sI2445
I0
sI2446
I0
sI2447
I0
sI2448
I0
sI2449
I0
sI2450
I0
sI2451
I0
sI2452
I0
sI2453
I0
sI2454
I0
sI2455
I0
sI2456
I0
sI2457
I0
sI2458
I0
sI2459
I0
sI2460
I0
sI2461
I0
sI2462
I0
sI2463
I0
sI2464
I0
sI2465
I0
sI2466
I0
sI2467
I0
sI2468
I0
sI2469
I0
sI2470
I0
sI2471
I0
sI2472
I0
sI2473
I0
sI2474
I0
sI2475
I0
sI2476
I0
sI2477
I0
sI2478
I0
sI2479
I0
sI2480
I0
sI2481
I0
sI2482
I0
sI2483
I0
sI2484
I0
sI2485
I0
sI2486
I0
sI2487
I0
sI2488
I0
sI2489
I0
sI2490
I0
sI2491
I0
sI2492
I0
sI2493
I0
sI2494
I0
sI2495
I0
sI2496
I0
sI2497
I0
sI2498
I0
sI2499
I0
sI2500
I0
sI2501
I0
sI2502
I0
sI2503
I0
sI2504
I0
sI2505
I0
sI2506
I0
sI2507
I0
sI2508
I0
sI2509
I0
sI2510
I0
sI2511
I0
sI2512
I0
sI2513
I0
sI2514
I0
sI2515
I0
sI2516
I0
sI2517
I0
sI2518
I0
sI2519
I0
sI2520
I0
sI2521
I0
sI2522
I0
sI2523
I0
sI2524
I0
sI2525
I0
sI2526
I0
sI2527
I0
sI2528
I0
sI2529
I0
sI2530
I0
sI2531
I0
sI2532
I0
sI2533
I0
sI2534
I0
sI2535
I0
sI2536
I0
sI2537
I0
sI2538
I0
sI2539
I0
sI2540
I0
sI2541
I0
sI2542
I0
sI2543
I0
sI2544
I0
sI2545
I0
sI2546
I0
sI2547
I0
sI2548
I0
sI2549
I0
sI2550
I0
sI2551
I0
sI2552
I0
sI2553
I0
sI2554
I0
sI2555
I0
sI2556
I0
sI2557
I0
sI2558
I0
sI2559
I0
s.