(lp1
(lp2
I16893
aI4096
aS'/'
aI0
aa(lp3
I16893
aI4096
aV/cat
p4
aI1
aa(lp5
I16893
aI4096
aV/mouse
p6
aI2
aa(lp7
I16893
aI4096
aV/mouse/mini
p8
aI3
aa(lp9
I16893
aI4096
aV/mouse/mini/minimi
p10
aI4
aa.